target datalayout = "e-m:e-p270:32:32-p271:32:32-p272:64:64-i64:64-i128:128-f80:128-n8:16:32:64-S128"
target triple = "x86_64-unknown-linux-gnu"

%struct.atomic_p_t = type { ptr }
%struct.malloc_mutex_s = type { %union.anon }
%union.anon = type { %struct.anon }
%struct.anon = type { %struct.mutex_prof_data_t, %union.pthread_mutex_t, %struct.atomic_b_t }
%struct.mutex_prof_data_t = type { %struct.nstime_t, %struct.nstime_t, i64, i64, i32, %struct.atomic_u32_t, i64, ptr, i64 }
%struct.nstime_t = type { i64 }
%struct.atomic_u32_t = type { i32 }
%union.pthread_mutex_t = type { %struct.__pthread_mutex_s }
%struct.__pthread_mutex_s = type { i32, i32, i32, i32, i32, i16, i16, %struct.__pthread_internal_list }
%struct.__pthread_internal_list = type { ptr, ptr }
%struct.atomic_b_t = type { i8 }
%struct.emap_s = type { %struct.rtree_s }
%struct.rtree_s = type { ptr, %struct.malloc_mutex_s, [262144 x %struct.rtree_node_elm_s] }
%struct.rtree_node_elm_s = type { %struct.atomic_p_t }
%struct.tsd_s = type { i8, i8, i64, i64, i64, i64, i64, i64, i64, i64, i64, i64, i64, i64, ptr, i64, i64, i64, ptr, ptr, %struct.ticker_geom_s, i8, %struct.tsd_binshards_s, %struct.tsd_link_t, i8, %struct.peak_s, %struct.activity_callback_thunk_s, %struct.tcache_slow_s, %struct.rtree_ctx_s, %struct.atomic_u8_t, i64, i64, i64, i64, %struct.tcache_s, %struct.witness_tsd_s }
%struct.ticker_geom_s = type { i32, i32 }
%struct.tsd_binshards_s = type { [39 x i8] }
%struct.tsd_link_t = type { ptr, ptr }
%struct.peak_s = type { i64, i64 }
%struct.activity_callback_thunk_s = type { ptr, ptr }
%struct.tcache_slow_s = type { %struct.anon.8, %struct.cache_bin_array_descriptor_s, ptr, i32, [39 x i8], [39 x i8], [39 x i8], ptr, ptr }
%struct.anon.8 = type { ptr, ptr }
%struct.cache_bin_array_descriptor_s = type { %struct.anon.9, ptr }
%struct.anon.9 = type { ptr, ptr }
%struct.rtree_ctx_s = type { [16 x %struct.rtree_ctx_cache_elm_s], [8 x %struct.rtree_ctx_cache_elm_s] }
%struct.rtree_ctx_cache_elm_s = type { i64, ptr }
%struct.atomic_u8_t = type { i8 }
%struct.tcache_s = type { ptr, [76 x %struct.cache_bin_s] }
%struct.cache_bin_s = type { ptr, %struct.cache_bin_stats_s, i16, i16, i16 }
%struct.cache_bin_stats_s = type { i64 }
%struct.witness_tsd_s = type { %struct.witness_list_t, i8 }
%struct.witness_list_t = type { ptr }
%struct.rtree_metadata_s = type { i32, i32, i8, i8 }
%struct.emap_alloc_ctx_t = type { i32, i8 }

@arena_emap_global = external global %struct.emap_s, align 8
@sz_index2size_tab = external global [235 x i64], align 16
@tsd_tls = external thread_local(initialexec) global %struct.tsd_s, align 8
@tsd_booted = external global i8, align 1

; Function Attrs: nounwind willreturn memory(read) uwtable
define dso_local i64 @je_sallocx(ptr noundef %ptr, i32 noundef %flags) #5 {
entry:
  %tsd.addr.i2.i.i = alloca ptr, align 8
  %tsd.addr.i.i.i = alloca ptr, align 8
  %tsd.addr.i8.i = alloca ptr, align 8
  %state.i.i15 = alloca i8, align 1
  %tsd.addr.i.i16 = alloca ptr, align 8
  %tsdn.addr.i4.i.i = alloca ptr, align 8
  %tsdn.addr.i.i.i = alloca ptr, align 8
  %retval.i.i = alloca ptr, align 8
  %tsdn.addr.i7.i = alloca ptr, align 8
  %fallback.addr.i.i = alloca ptr, align 8
  %index.addr.i6.i = alloca i32, align 4
  %index.addr.i4.i = alloca i32, align 4
  %ret.i.i = alloca i64, align 8
  %index.addr.i.i = alloca i32, align 4
  %tsdn.addr.i.i = alloca ptr, align 8
  %emap.addr.i.i = alloca ptr, align 8
  %ptr.addr.i.i = alloca ptr, align 8
  %alloc_ctx.addr.i.i = alloca ptr, align 8
  %rtree_ctx_fallback.i.i = alloca %struct.rtree_ctx_s, align 8
  %rtree_ctx.i.i = alloca ptr, align 8
  %metadata.i.i = alloca %struct.rtree_metadata_s, align 4
  %tmp.coerce.i.i = alloca { i64, i32 }, align 8
  %tsdn.addr.i17 = alloca ptr, align 8
  %ptr.addr.i18 = alloca ptr, align 8
  %alloc_ctx.i = alloca %struct.emap_alloc_ctx_t, align 4
  %init.addr.i.i = alloca i8, align 1
  %tsd.addr.i17.i = alloca ptr, align 8
  %tsd.addr.i.i11 = alloca ptr, align 8
  %retval.i12 = alloca ptr, align 8
  %init.addr.i = alloca i8, align 1
  %minimal.addr.i = alloca i8, align 1
  %tsd.i = alloca ptr, align 8
  %tsdn.addr.i9 = alloca ptr, align 8
  %ptr.addr.i = alloca ptr, align 8
  %tsd.addr.i.i = alloca ptr, align 8
  %retval.i = alloca ptr, align 8
  %tsdn.addr.i8 = alloca ptr, align 8
  %tsdn.addr.i = alloca ptr, align 8
  %ptr.addr = alloca ptr, align 8
  %flags.addr = alloca i32, align 4
  %usize = alloca i64, align 8
  %tsdn = alloca ptr, align 8
  store ptr %ptr, ptr %ptr.addr, align 8
  store i32 %flags, ptr %flags.addr, align 4
  br label %do.body

do.body:                                          ; preds = %entry
  br label %do.end

do.end:                                           ; preds = %do.body
  br label %do.body1

do.body1:                                         ; preds = %do.end
  br label %do.end2

do.end2:                                          ; preds = %do.body1
  br label %do.body3

do.body3:                                         ; preds = %do.end2
  br label %do.end4

do.end4:                                          ; preds = %do.body3
  %0 = load i8, ptr @tsd_booted, align 1
  %tobool.i14 = trunc i8 %0 to i1
  br i1 %tobool.i14, label %if.end.i, label %if.then.i

if.then.i:                                        ; preds = %do.end4
  store ptr null, ptr %retval.i, align 8
  br label %tsdn_fetch.exit

if.end.i:                                         ; preds = %do.end4
  store i8 0, ptr %init.addr.i, align 1
  store i8 0, ptr %minimal.addr.i, align 1
  %1 = load i8, ptr %init.addr.i, align 1
  %tobool.i = trunc i8 %1 to i1
  %frombool.i.i = zext i1 %tobool.i to i8
  store i8 %frombool.i.i, ptr %init.addr.i.i, align 1
  %2 = call align 8 ptr @llvm.threadlocal.address.p0(ptr align 8 @tsd_tls)
  store ptr %2, ptr %tsd.i, align 8
  %3 = load i8, ptr %init.addr.i, align 1
  %tobool2.i = trunc i8 %3 to i1
  br i1 %tobool2.i, label %if.end.i13, label %land.lhs.true.i

land.lhs.true.i:                                  ; preds = %if.end.i
  br label %if.end.i13

if.end.i13:                                       ; preds = %land.lhs.true.i, %if.end.i
  %4 = load ptr, ptr %tsd.i, align 8
  store ptr %4, ptr %tsd.addr.i17.i, align 8
  %5 = load ptr, ptr %tsd.addr.i17.i, align 8
  %state.i.i = getelementptr inbounds %struct.tsd_s, ptr %5, i32 0, i32 29
  %6 = load i8, ptr %state.i.i, align 8
  %conv.i = zext i8 %6 to i32
  %cmp6.i = icmp ne i32 %conv.i, 0
  br i1 %cmp6.i, label %if.then11.i, label %if.end14.i

if.then11.i:                                      ; preds = %if.end.i13
  %7 = load ptr, ptr %tsd.i, align 8
  %8 = load i8, ptr %minimal.addr.i, align 1
  %tobool12.i = trunc i8 %8 to i1
  %call13.i = call ptr @tsd_fetch_slow(ptr noundef %7, i1 noundef zeroext %tobool12.i) #14
  store ptr %call13.i, ptr %retval.i12, align 8
  br label %tsd_fetch_impl.exit

if.end14.i:                                       ; preds = %if.end.i13
  %9 = load ptr, ptr %tsd.i, align 8
  store ptr %9, ptr %tsd.addr.i.i11, align 8
  %10 = load ptr, ptr %tsd.i, align 8
  store ptr %10, ptr %retval.i12, align 8
  br label %tsd_fetch_impl.exit

tsd_fetch_impl.exit:                              ; preds = %if.end14.i, %if.then11.i
  %11 = load ptr, ptr %retval.i12, align 8
  store ptr %11, ptr %tsd.addr.i.i, align 8
  %12 = load ptr, ptr %tsd.addr.i.i, align 8
  store ptr %12, ptr %retval.i, align 8
  br label %tsdn_fetch.exit

tsdn_fetch.exit:                                  ; preds = %tsd_fetch_impl.exit, %if.then.i
  %13 = load ptr, ptr %retval.i, align 8
  store ptr %13, ptr %tsdn, align 8
  %14 = load ptr, ptr %tsdn, align 8
  store ptr %14, ptr %tsdn.addr.i8, align 8
  %15 = load ptr, ptr %tsdn, align 8
  %16 = load ptr, ptr %ptr.addr, align 8
  store ptr %15, ptr %tsdn.addr.i9, align 8
  store ptr %16, ptr %ptr.addr.i, align 8
  %17 = load ptr, ptr %tsdn.addr.i9, align 8
  %18 = load ptr, ptr %ptr.addr.i, align 8
  store ptr %17, ptr %tsdn.addr.i17, align 8
  store ptr %18, ptr %ptr.addr.i18, align 8
  %19 = load ptr, ptr %tsdn.addr.i17, align 8
  %20 = load ptr, ptr %ptr.addr.i18, align 8
  store ptr %19, ptr %tsdn.addr.i.i, align 8
  store ptr @arena_emap_global, ptr %emap.addr.i.i, align 8
  store ptr %20, ptr %ptr.addr.i.i, align 8
  store ptr %alloc_ctx.i, ptr %alloc_ctx.addr.i.i, align 8
  %21 = load ptr, ptr %tsdn.addr.i.i, align 8
  store ptr %21, ptr %tsdn.addr.i7.i, align 8
  store ptr %rtree_ctx_fallback.i.i, ptr %fallback.addr.i.i, align 8
  %22 = load ptr, ptr %tsdn.addr.i7.i, align 8
  store ptr %22, ptr %tsdn.addr.i.i.i, align 8
  %23 = load ptr, ptr %tsdn.addr.i.i.i, align 8
  %cmp.i.i.i = icmp eq ptr %23, null
  br i1 %cmp.i.i.i, label %if.then.i.i, label %if.end.i.i

if.then.i.i:                                      ; preds = %tsdn_fetch.exit
  %24 = load ptr, ptr %fallback.addr.i.i, align 8
  call void @rtree_ctx_data_init(ptr noundef %24) #14
  %25 = load ptr, ptr %fallback.addr.i.i, align 8
  store ptr %25, ptr %retval.i.i, align 8
  br label %arena_salloc.exit

if.end.i.i:                                       ; preds = %tsdn_fetch.exit
  %26 = load ptr, ptr %tsdn.addr.i7.i, align 8
  store ptr %26, ptr %tsdn.addr.i4.i.i, align 8
  %27 = load ptr, ptr %tsdn.addr.i4.i.i, align 8
  store ptr %27, ptr %tsd.addr.i.i16, align 8
  %28 = load ptr, ptr %tsd.addr.i.i16, align 8
  store ptr %28, ptr %tsd.addr.i8.i, align 8
  %29 = load ptr, ptr %tsd.addr.i8.i, align 8
  store ptr %29, ptr %tsd.addr.i.i.i, align 8
  %30 = load ptr, ptr %tsd.addr.i.i.i, align 8
  %state.i.i.i = getelementptr inbounds %struct.tsd_s, ptr %30, i32 0, i32 29
  %31 = load i8, ptr %state.i.i.i, align 8
  store i8 %31, ptr %state.i.i15, align 1
  %32 = load ptr, ptr %tsd.addr.i8.i, align 8
  store ptr %32, ptr %tsd.addr.i2.i.i, align 8
  %33 = load ptr, ptr %tsd.addr.i2.i.i, align 8
  %cant_access_tsd_items_directly_use_a_getter_or_setter_rtree_ctx.i.i.i = getelementptr inbounds %struct.tsd_s, ptr %33, i32 0, i32 28
  store ptr %cant_access_tsd_items_directly_use_a_getter_or_setter_rtree_ctx.i.i.i, ptr %retval.i.i, align 8
  br label %arena_salloc.exit

arena_salloc.exit:                                ; preds = %if.end.i.i, %if.then.i.i
  %34 = load ptr, ptr %retval.i.i, align 8
  store ptr %34, ptr %rtree_ctx.i.i, align 8
  %35 = load ptr, ptr %tsdn.addr.i.i, align 8
  %36 = load ptr, ptr %emap.addr.i.i, align 8
  %37 = load ptr, ptr %rtree_ctx.i.i, align 8
  %38 = load ptr, ptr %ptr.addr.i.i, align 8
  %39 = ptrtoint ptr %38 to i64
  %call1.i.i = call { i64, i32 } @rtree_metadata_read(ptr noundef %35, ptr noundef %36, ptr noundef %37, i64 noundef %39)
  store { i64, i32 } %call1.i.i, ptr %tmp.coerce.i.i, align 8
  call void @llvm.memcpy.p0.p0.i64(ptr align 4 %metadata.i.i, ptr align 8 %tmp.coerce.i.i, i64 12, i1 false)
  %40 = load i32, ptr %metadata.i.i, align 4
  %41 = load ptr, ptr %alloc_ctx.addr.i.i, align 8
  store i32 %40, ptr %41, align 4
  %slab.i.i = getelementptr inbounds %struct.rtree_metadata_s, ptr %metadata.i.i, i32 0, i32 3
  %42 = load i8, ptr %slab.i.i, align 1
  %tobool.i.i = trunc i8 %42 to i1
  %43 = load ptr, ptr %alloc_ctx.addr.i.i, align 8
  %slab3.i.i = getelementptr inbounds %struct.emap_alloc_ctx_t, ptr %43, i32 0, i32 1
  %frombool.i.i19 = zext i1 %tobool.i.i to i8
  store i8 %frombool.i.i19, ptr %slab3.i.i, align 4
  %44 = load i32, ptr %alloc_ctx.i, align 4
  store i32 %44, ptr %index.addr.i.i, align 4
  %45 = load i32, ptr %index.addr.i.i, align 4
  store i32 %45, ptr %index.addr.i4.i, align 4
  %46 = load i32, ptr %index.addr.i4.i, align 4
  store i32 %46, ptr %index.addr.i6.i, align 4
  %47 = load i32, ptr %index.addr.i6.i, align 4
  %idxprom.i.i = zext i32 %47 to i64
  %arrayidx.i.i = getelementptr inbounds [235 x i64], ptr @sz_index2size_tab, i64 0, i64 %idxprom.i.i
  %48 = load i64, ptr %arrayidx.i.i, align 8
  store i64 %48, ptr %ret.i.i, align 8
  %49 = load i64, ptr %ret.i.i, align 8
  store i64 %49, ptr %usize, align 8
  %50 = load ptr, ptr %tsdn, align 8
  store ptr %50, ptr %tsdn.addr.i, align 8
  br label %do.body6

do.body6:                                         ; preds = %arena_salloc.exit
  br label %do.end7

do.end7:                                          ; preds = %do.body6
  %51 = load i64, ptr %usize, align 8
  ret i64 %51
}