; Function Attrs: mustprogress nofree nounwind willreturn memory(read) uwtable
define dso_local i64 @je_sallocx(ptr noundef %ptr, i32 noundef %flags) local_unnamed_addr #7 {
entry:
  %rtree_ctx_fallback.i.i = alloca %struct.rtree_ctx_s, align 8
  %0 = load i8, ptr @tsd_booted, align 1
  %1 = and i8 %0, 1
  %tobool.i14.not = icmp eq i8 %1, 0
  br i1 %tobool.i14.not, label %if.then.i.i, label %if.end.i

if.end.i:                                         ; preds = %entry
  %2 = tail call align 8 ptr @llvm.threadlocal.address.p0(ptr align 8 @tsd_tls)
  %state.i.i = getelementptr inbounds i8, ptr %2, i64 832
  %3 = load i8, ptr %state.i.i, align 8
  %cmp6.i.not = icmp eq i8 %3, 0
  br i1 %cmp6.i.not, label %if.end.i.i.split, label %tsdn_fetch.exit

tsdn_fetch.exit:                                  ; preds = %if.end.i
  %call13.i = tail call ptr @tsd_fetch_slow(ptr noundef nonnull %2, i1 noundef zeroext false) #19
  %cmp.i.i.i = icmp eq ptr %call13.i, null
  br i1 %cmp.i.i.i, label %if.then.i.i, label %if.end.i.i.split

if.then.i.i:                                      ; preds = %entry, %tsdn_fetch.exit
  call void @rtree_ctx_data_init(ptr noundef nonnull %rtree_ctx_fallback.i.i) #19
  %4 = ptrtoint ptr %ptr to i64
  %call1.i.i12 = call fastcc { i64, i32 } @rtree_metadata_read(ptr noundef null, ptr noundef nonnull %rtree_ctx_fallback.i.i, i64 noundef %4)
  br label %arena_salloc.exit

if.end.i.i.split:                                 ; preds = %if.end.i, %tsdn_fetch.exit
  %retval.i.019 = phi ptr [ %call13.i, %tsdn_fetch.exit ], [ %2, %if.end.i ]
  %cant_access_tsd_items_directly_use_a_getter_or_setter_rtree_ctx.i.i.i = getelementptr inbounds i8, ptr %retval.i.019, i64 448
  %5 = ptrtoint ptr %ptr to i64
  %call1.i.i13 = tail call fastcc { i64, i32 } @rtree_metadata_read(ptr noundef nonnull %retval.i.019, ptr noundef nonnull %cant_access_tsd_items_directly_use_a_getter_or_setter_rtree_ctx.i.i.i, i64 noundef %5)
  br label %arena_salloc.exit

arena_salloc.exit:                                ; preds = %if.end.i.i.split, %if.then.i.i
  %phi.call = phi { i64, i32 } [ %call1.i.i12, %if.then.i.i ], [ %call1.i.i13, %if.end.i.i.split ]
  %call1.i.i.fca.0.extract = extractvalue { i64, i32 } %phi.call, 0
  %idxprom.i.i = and i64 %call1.i.i.fca.0.extract, 4294967295
  %arrayidx.i.i = getelementptr inbounds [235 x i64], ptr @sz_index2size_tab, i64 0, i64 %idxprom.i.i
  %6 = load i64, ptr %arrayidx.i.i, align 8
  ret i64 %6
}